; Function Attrs: mustprogress uwtable
define dso_local void @_Z9readRgba2PKc(ptr noundef %0) local_unnamed_addr #8 personality ptr @__gxx_personality_v0 {
  %2 = alloca %"class.Imf_3_4::RgbaInputFile", align 8
  call void @llvm.lifetime.start.p0(i64 64, ptr nonnull %2) #36
  %3 = tail call noundef i32 @_ZN7Imf_3_417globalThreadCountEv()
  call void @_ZN7Imf_3_413RgbaInputFileC1EPKci(ptr noundef nonnull align 8 dereferenceable(64) %2, ptr noundef %0, i32 noundef %3)
  %4 = invoke noundef nonnull align 4 dereferenceable(16) ptr @_ZNK7Imf_3_413RgbaInputFile10dataWindowEv(ptr noundef nonnull align 8 dereferenceable(64) %2)
          to label %5 unwind label %34

5:                                                ; preds = %1
  %6 = load i32, ptr %4, align 4, !tbaa !60
  %7 = getelementptr inbounds nuw i8, ptr %4, i64 4
  %8 = load i32, ptr %7, align 4, !tbaa !62
  %9 = getelementptr inbounds nuw i8, ptr %4, i64 8
  %10 = load i32, ptr %9, align 4, !tbaa !60
  %11 = getelementptr inbounds nuw i8, ptr %4, i64 12
  %12 = load i32, ptr %11, align 4, !tbaa !62
  %13 = sub nsw i32 %10, %6
  %14 = add nsw i32 %13, 1
  %15 = sext i32 %14 to i64
  %16 = mul nsw i64 %15, 10
  %17 = icmp ugt i64 %16, 2305843009213693951
  %18 = mul nsw i64 %15, 80
  %19 = select i1 %17, i64 -1, i64 %18
  %20 = invoke noalias noundef nonnull ptr @_Znam(i64 noundef %19) #39
          to label %_ZN7Imf_3_47Array2DINS_4RgbaEEC2Ell.exit.preheader unwind label %36

_ZN7Imf_3_47Array2DINS_4RgbaEEC2Ell.exit.preheader: ; preds = %5
  %.not23 = icmp sgt i32 %8, %12
  br i1 %.not23, label %_ZN7Imf_3_47Array2DINS_4RgbaEED2Ev.exit, label %.lr.ph

.lr.ph:                                           ; preds = %_ZN7Imf_3_47Array2DINS_4RgbaEEC2Ell.exit.preheader
  %21 = sext i32 %6 to i64
  %22 = sub nsw i64 0, %21
  %23 = getelementptr inbounds %"struct.Imf_3_4::Rgba", ptr %20, i64 %22
  %24 = sext i32 %8 to i64
  %25 = sext i32 %12 to i64
  br label %26

26:                                               ; preds = %.lr.ph, %_ZN7Imf_3_47Array2DINS_4RgbaEEC2Ell.exit
  %indvars.iv = phi i64 [ %24, %.lr.ph ], [ %indvars.iv.next, %_ZN7Imf_3_47Array2DINS_4RgbaEEC2Ell.exit ]
  %27 = mul nsw i64 %indvars.iv, %15
  %28 = sub nsw i64 0, %27
  %29 = getelementptr inbounds %"struct.Imf_3_4::Rgba", ptr %23, i64 %28
  invoke void @_ZN7Imf_3_413RgbaInputFile14setFrameBufferEPNS_4RgbaEmm(ptr noundef nonnull align 8 dereferenceable(64) %2, ptr noundef nonnull %29, i64 noundef 1, i64 noundef %15)
          to label %30 unwind label %38

30:                                               ; preds = %26
  %31 = trunc i64 %indvars.iv to i32
  %32 = add i32 %31, 9
  %.sroa.speculated = call i32 @llvm.smin.i32(i32 %12, i32 %32)
  %33 = trunc nsw i64 %indvars.iv to i32
  invoke void @_ZN7Imf_3_413RgbaInputFile10readPixelsEii(ptr noundef nonnull align 8 dereferenceable(64) %2, i32 noundef %33, i32 noundef %.sroa.speculated)
          to label %_ZN7Imf_3_47Array2DINS_4RgbaEEC2Ell.exit unwind label %40

_ZN7Imf_3_47Array2DINS_4RgbaEEC2Ell.exit:         ; preds = %30
  %indvars.iv.next = add nsw i64 %indvars.iv, 10
  %.not = icmp sgt i64 %indvars.iv.next, %25
  br i1 %.not, label %_ZN7Imf_3_47Array2DINS_4RgbaEED2Ev.exit, label %26, !llvm.loop !156

34:                                               ; preds = %1
  %35 = landingpad { ptr, i32 }
          cleanup
  br label %42

36:                                               ; preds = %5
  %37 = landingpad { ptr, i32 }
          cleanup
  br label %42

38:                                               ; preds = %26
  %39 = landingpad { ptr, i32 }
          cleanup
  br label %_ZN7Imf_3_47Array2DINS_4RgbaEED2Ev.exit11

40:                                               ; preds = %30
  %41 = landingpad { ptr, i32 }
          cleanup
  br label %_ZN7Imf_3_47Array2DINS_4RgbaEED2Ev.exit11

_ZN7Imf_3_47Array2DINS_4RgbaEED2Ev.exit:          ; preds = %_ZN7Imf_3_47Array2DINS_4RgbaEEC2Ell.exit, %_ZN7Imf_3_47Array2DINS_4RgbaEEC2Ell.exit.preheader
  call void @_ZdaPv(ptr noundef nonnull %20) #38
  call void @_ZN7Imf_3_413RgbaInputFileD1Ev(ptr noundef nonnull align 8 dereferenceable(64) %2) #36
  call void @llvm.lifetime.end.p0(i64 64, ptr nonnull %2) #36
  ret void

_ZN7Imf_3_47Array2DINS_4RgbaEED2Ev.exit11:        ; preds = %40, %38
  %.pn = phi { ptr, i32 } [ %41, %40 ], [ %39, %38 ]
  call void @_ZdaPv(ptr noundef nonnull %20) #38
  br label %42

42:                                               ; preds = %36, %_ZN7Imf_3_47Array2DINS_4RgbaEED2Ev.exit11, %34
  %.pn.pn.pn = phi { ptr, i32 } [ %35, %34 ], [ %.pn, %_ZN7Imf_3_47Array2DINS_4RgbaEED2Ev.exit11 ], [ %37, %36 ]
  call void @_ZN7Imf_3_413RgbaInputFileD1Ev(ptr noundef nonnull align 8 dereferenceable(64) %2) #36
  call void @llvm.lifetime.end.p0(i64 64, ptr nonnull %2) #36
  resume { ptr, i32 } %.pn.pn.pn
}